Certificate:
    Data:
        Version: 3 (0x2)
        Serial Number: 1 (0x1)
    Signature Algorithm: sha256WithRSAEncryption
        Issuer: C=US, ST=CA, L=SanFrancisco, O=Fort-Funston, OU=MyOrganizationalUnit, CN=Fort-Funston CA/name=EasyRSA/emailAddress=me@myhost.mydomain
        Validity
            Not Before: Sep  8 14:57:55 2017 GMT
            Not After : Sep  6 14:57:55 2027 GMT
        Subject: C=US, ST=CA, L=SanFrancisco, O=Fort-Funston, OU=MyOrganizationalUnit, CN=myserver/name=EasyRSA/emailAddress=me@myhost.mydomain
        Subject Public Key Info:
            Public Key Algorithm: rsaEncryption
                Public-Key: (2048 bit)
                Modulus:
                    00:b8:e0:a3:72:3d:20:d2:fa:9e:a7:9e:7a:f4:cb:
                    68:41:2c:35:7a:2f:9b:1d:92:f6:cc:db:7a:4d:8f:
                    b3:af:13:d5:cc:4a:ac:f6:db:43:e0:20:0d:6d:56:
                    33:7f:82:0e:6f:49:b0:fc:4a:5b:d5:d4:29:38:33:
                    b5:96:d0:54:45:59:54:cf:1e:7d:cc:71:e1:7e:31:
                    41:f5:27:68:8f:19:0a:47:55:a8:fd:bc:db:ec:4d:
                    22:62:d8:7e:bd:82:17:63:79:6a:4d:36:0d:ce:f0:
                    b8:06:3d:c3:d2:8c:e1:17:0f:0f:1c:f2:ad:79:40:
                    c9:b7:2e:24:4c:03:8f:e9:90:bf:a6:98:f7:03:66:
                    30:62:91:8a:fe:23:87:f2:3b:f2:a8:a2:cb:31:97:
                    10:d1:ce:42:33:50:d2:4e:44:1a:7d:ca:08:67:fb:
                    50:b8:3b:00:17:a5:12:6b:ad:d7:b5:b4:41:02:56:
                    a4:b0:bc:93:fe:79:67:67:a1:a8:b6:a6:c3:c9:20:
                    00:4f:0c:e8:e5:a0:a2:99:39:9e:f9:19:8a:cd:74:
                    db:54:d5:5e:a8:de:94:ff:fb:c6:9e:48:1b:69:79:
                    f6:31:d3:4b:ff:42:b7:43:a0:f7:15:42:08:b0:bc:
                    f5:c1:a2:27:fd:9a:47:4a:fd:4a:4f:ff:32:79:da:
                    3b:8b
                Exponent: 65537 (0x10001)
        X509v3 extensions:
            X509v3 Basic Constraints: 
                CA:FALSE
            Netscape Cert Type: 
                SSL Server
            Netscape Comment: 
                Easy-RSA Generated Server Certificate
            X509v3 Subject Key Identifier: 
                C6:07:F6:A8:26:9C:63:53:4A:72:50:33:FF:60:E7:25:0C:2C:87:79
            X509v3 Authority Key Identifier: 
                keyid:E7:B3:11:F9:BC:6C:C3:04:3A:34:7F:40:B0:12:7E:31:AA:1A:BB:97
                DirName:/C=US/ST=CA/L=SanFrancisco/O=Fort-Funston/OU=MyOrganizationalUnit/CN=Fort-Funston CA/name=EasyRSA/emailAddress=me@myhost.mydomain
                serial:C4:C7:55:BE:75:F4:2F:FC

            X509v3 Extended Key Usage: 
                TLS Web Server Authentication
            X509v3 Key Usage: 
                Digital Signature, Key Encipherment
            X509v3 Subject Alternative Name: 
                DNS:myserver
    Signature Algorithm: sha256WithRSAEncryption
         86:c1:15:40:1c:3f:c0:56:fd:8a:4b:cc:ce:b1:a4:0e:05:a0:
         f4:b0:3c:6a:09:97:e9:54:db:65:d1:54:d7:06:80:d9:2b:40:
         1f:45:6c:b2:c2:e3:e5:6d:d9:9f:8b:91:7c:13:88:46:d4:79:
         f9:06:04:8c:28:91:59:9c:9b:77:1d:4e:61:70:4b:5b:57:54:
         6e:f2:bc:c8:75:27:b0:33:72:a1:63:09:27:8c:83:ac:d4:b1:
         56:6a:d0:97:f6:36:08:7b:52:9e:c0:ef:e8:f7:30:dd:ed:04:
         62:b9:d4:76:38:35:cb:ee:71:16:90:c5:8c:54:d0:44:92:34:
         83:a5:b5:e7:5d:9f:8b:43:97:92:79:a7:43:f5:21:f3:29:d4:
         23:e4:8e:0f:60:17:42:70:1b:26:01:68:0c:52:84:93:b2:0a:
         4e:70:a1:ac:27:40:8d:b9:ae:39:5e:2e:ae:4e:53:6c:57:82:
         86:7a:23:94:ca:d8:54:0b:ff:d5:c5:db:92:62:71:85:12:35:
         54:6a:17:fa:cb:23:c0:8a:85:80:03:63:cb:2d:7b:a6:1f:1b:
         40:74:57:4e:b0:35:bf:43:22:89:b0:e3:33:5a:41:e0:66:6e:
         6f:40:07:3c:75:06:17:83:75:f4:d8:48:f1:07:46:43:b9:49:
         7a:ba:4a:8d
-----BEGIN CERTIFICATE-----
MIIFgDCCBGigAwIBAgIBATANBgkqhkiG9w0BAQsFADCBtjELMAkGA1UEBhMCVVMx
CzAJBgNVBAgTAkNBMRUwEwYDVQQHEwxTYW5GcmFuY2lzY28xFTATBgNVBAoTDEZv
cnQtRnVuc3RvbjEdMBsGA1UECxMUTXlPcmdhbml6YXRpb25hbFVuaXQxGDAWBgNV
BAMTD0ZvcnQtRnVuc3RvbiBDQTEQMA4GA1UEKRMHRWFzeVJTQTEhMB8GCSqGSIb3
DQEJARYSbWVAbXlob3N0Lm15ZG9tYWluMB4XDTE3MDkwODE0NTc1NVoXDTI3MDkw
NjE0NTc1NVowga8xCzAJBgNVBAYTAlVTMQswCQYDVQQIEwJDQTEVMBMGA1UEBxMM
U2FuRnJhbmNpc2NvMRUwEwYDVQQKEwxGb3J0LUZ1bnN0b24xHTAbBgNVBAsTFE15
T3JnYW5pemF0aW9uYWxVbml0MREwDwYDVQQDEwhteXNlcnZlcjEQMA4GA1UEKRMH
RWFzeVJTQTEhMB8GCSqGSIb3DQEJARYSbWVAbXlob3N0Lm15ZG9tYWluMIIBIjAN
BgkqhkiG9w0BAQEFAAOCAQ8AMIIBCgKCAQEAuOCjcj0g0vqep5569MtoQSw1ei+b
HZL2zNt6TY+zrxPVzEqs9ttD4CANbVYzf4IOb0mw/Epb1dQpODO1ltBURVlUzx59
zHHhfjFB9SdojxkKR1Wo/bzb7E0iYth+vYIXY3lqTTYNzvC4Bj3D0ozhFw8PHPKt
eUDJty4kTAOP6ZC/ppj3A2YwYpGK/iOH8jvyqKLLMZcQ0c5CM1DSTkQafcoIZ/tQ
uDsAF6USa63XtbRBAlaksLyT/nlnZ6GotqbDySAATwzo5aCimTme+RmKzXTbVNVe
qN6U//vGnkgbaXn2MdNL/0K3Q6D3FUIIsLz1waIn/ZpHSv1KT/8yedo7iwIDAQAB
o4IBnDCCAZgwCQYDVR0TBAIwADARBglghkgBhvhCAQEEBAMCBkAwNAYJYIZIAYb4
QgENBCcWJUVhc3ktUlNBIEdlbmVyYXRlZCBTZXJ2ZXIgQ2VydGlmaWNhdGUwHQYD
VR0OBBYEFMYH9qgmnGNTSnJQM/9g5yUMLId5MIHrBgNVHSMEgeMwgeCAFOezEfm8
bMMEOjR/QLASfjGqGruXoYG8pIG5MIG2MQswCQYDVQQGEwJVUzELMAkGA1UECBMC
Q0ExFTATBgNVBAcTDFNhbkZyYW5jaXNjbzEVMBMGA1UEChMMRm9ydC1GdW5zdG9u
MR0wGwYDVQQLExRNeU9yZ2FuaXphdGlvbmFsVW5pdDEYMBYGA1UEAxMPRm9ydC1G
dW5zdG9uIENBMRAwDgYDVQQpEwdFYXN5UlNBMSEwHwYJKoZIhvcNAQkBFhJtZUBt
eWhvc3QubXlkb21haW6CCQDEx1W+dfQv/DATBgNVHSUEDDAKBggrBgEFBQcDATAL
BgNVHQ8EBAMCBaAwEwYDVR0RBAwwCoIIbXlzZXJ2ZXIwDQYJKoZIhvcNAQELBQAD
ggEBAIbBFUAcP8BW/YpLzM6xpA4FoPSwPGoJl+lU22XRVNcGgNkrQB9FbLLC4+Vt
2Z+LkXwTiEbUefkGBIwokVmcm3cdTmFwS1tXVG7yvMh1J7AzcqFjCSeMg6zUsVZq
0Jf2Ngh7Up7A7+j3MN3tBGK51HY4NcvucRaQxYxU0ESSNIOlteddn4tDl5J5p0P1
IfMp1CPkjg9gF0JwGyYBaAxShJOyCk5woawnQI25rjleLq5OU2xXgoZ6I5TK2FQL
/9XF25JicYUSNVRqF/rLI8CKhYADY8ste6YfG0B0V06wNb9DIomw4zNaQeBmbm9A
Bzx1BheDdfTYSPEHRkO5SXq6So0=
-----END CERTIFICATE-----
